; Function Attrs: mustprogress nofree norecurse nosync nounwind willreturn memory(none) uwtable
define internal i32 @get_log_h2(i16 noundef signext %0, i32 noundef %1) #9 {
  %3 = tail call i16 @llvm.abs.i16(i16 %0, i1 false)
  %narrow = add nuw i16 %3, 1
  %4 = uitofp i16 %narrow to double
  %5 = tail call nsz double @llvm.log10.f64(double %4)
  %6 = sitofp i32 %1 to double
  %7 = fmul nsz double %5, %6
  %8 = fdiv nsz double %7, 0x40120FD21B95825F
  %9 = fptosi double %8 to i32
  ret i32 %9
}